target datalayout = "e-m:e-p270:32:32-p271:32:32-p272:64:64-i64:64-i128:128-f80:128-n8:16:32:64-S128"
target triple = "x86_64-pc-linux-gnu"

%struct.AVFilterContext = type { ptr, ptr, ptr, ptr, ptr, i32, ptr, ptr, i32, ptr, ptr, i32, i32, ptr, ptr, ptr, ptr, i32, ptr, i32, i32 }
%struct.BLRContext = type { ptr, i32, i32, i32, float, float, i8, i8, i32, i32, i32, i32, i32, double, i64, ptr, ptr, ptr, ptr, ptr }
%struct.AVFilterLink = type { ptr, ptr, ptr, ptr, i32, i32, i32, i32, %struct.AVRational, i32, i32, i32, %struct.AVChannelLayout, %struct.AVRational, ptr, i32, %struct.AVFilterFormatsConfig, %struct.AVFilterFormatsConfig }
%struct.AVChannelLayout = type { i32, i32, %union.anon.1, ptr }
%union.anon.1 = type { i64 }
%struct.AVRational = type { i32, i32 }
%struct.AVFilterFormatsConfig = type { ptr, ptr, ptr, ptr, ptr }
%struct.AVPixFmtDescriptor = type { ptr, i8, i8, i8, i64, [4 x %struct.AVComponentDescriptor], ptr }
%struct.AVComponentDescriptor = type { i32, i32, i32, i32, i32 }

; Function Attrs: nounwind uwtable
define internal i32 @blurdetect_config_input(ptr noundef %0) #1 {
  %2 = alloca i32, align 4
  %3 = alloca ptr, align 8
  %4 = alloca ptr, align 8
  %5 = alloca ptr, align 8
  %6 = alloca i32, align 4
  %7 = alloca ptr, align 8
  %8 = alloca i32, align 4
  store ptr %0, ptr %3, align 8, !tbaa !36
  call void @llvm.lifetime.start.p0(i64 8, ptr %4) #9
  %9 = load ptr, ptr %3, align 8, !tbaa !36
  %10 = getelementptr inbounds nuw %struct.AVFilterLink, ptr %9, i32 0, i32 2
  %11 = load ptr, ptr %10, align 8, !tbaa !42
  store ptr %11, ptr %4, align 8, !tbaa !4
  call void @llvm.lifetime.start.p0(i64 8, ptr %5) #9
  %12 = load ptr, ptr %4, align 8, !tbaa !4
  %13 = getelementptr inbounds nuw %struct.AVFilterContext, ptr %12, i32 0, i32 9
  %14 = load ptr, ptr %13, align 8, !tbaa !9
  store ptr %14, ptr %5, align 8, !tbaa !22
  call void @llvm.lifetime.start.p0(i64 4, ptr %6) #9
  %15 = load ptr, ptr %3, align 8, !tbaa !36
  %16 = getelementptr inbounds nuw %struct.AVFilterLink, ptr %15, i32 0, i32 6
  %17 = load i32, ptr %16, align 8, !tbaa !51
  %18 = load ptr, ptr %3, align 8, !tbaa !36
  %19 = getelementptr inbounds nuw %struct.AVFilterLink, ptr %18, i32 0, i32 7
  %20 = load i32, ptr %19, align 4, !tbaa !53
  %21 = mul nsw i32 %17, %20
  store i32 %21, ptr %6, align 4, !tbaa !52
  call void @llvm.lifetime.start.p0(i64 8, ptr %7) #9
  %22 = load ptr, ptr %3, align 8, !tbaa !36
  %23 = getelementptr inbounds nuw %struct.AVFilterLink, ptr %22, i32 0, i32 5
  %24 = load i32, ptr %23, align 4, !tbaa !71
  %25 = call ptr @av_pix_fmt_desc_get(i32 noundef %24)
  store ptr %25, ptr %7, align 8, !tbaa !72
  %26 = load ptr, ptr %7, align 8, !tbaa !72
  %27 = getelementptr inbounds nuw %struct.AVPixFmtDescriptor, ptr %26, i32 0, i32 2
  %28 = load i8, ptr %27, align 1, !tbaa !74
  %29 = zext i8 %28 to i32
  %30 = load ptr, ptr %5, align 8, !tbaa !22
  %31 = getelementptr inbounds nuw %struct.BLRContext, ptr %30, i32 0, i32 1
  store i32 %29, ptr %31, align 8, !tbaa !64
  %32 = load ptr, ptr %7, align 8, !tbaa !72
  %33 = getelementptr inbounds nuw %struct.AVPixFmtDescriptor, ptr %32, i32 0, i32 3
  %34 = load i8, ptr %33, align 2, !tbaa !76
  %35 = zext i8 %34 to i32
  %36 = load ptr, ptr %5, align 8, !tbaa !22
  %37 = getelementptr inbounds nuw %struct.BLRContext, ptr %36, i32 0, i32 2
  store i32 %35, ptr %37, align 4, !tbaa !65
  %38 = load ptr, ptr %3, align 8, !tbaa !36
  %39 = getelementptr inbounds nuw %struct.AVFilterLink, ptr %38, i32 0, i32 5
  %40 = load i32, ptr %39, align 4, !tbaa !71
  %41 = call i32 @av_pix_fmt_count_planes(i32 noundef %40)
  %42 = load ptr, ptr %5, align 8, !tbaa !22
  %43 = getelementptr inbounds nuw %struct.BLRContext, ptr %42, i32 0, i32 3
  store i32 %41, ptr %43, align 8, !tbaa !63
  %44 = load ptr, ptr %5, align 8, !tbaa !22
  %45 = getelementptr inbounds nuw %struct.BLRContext, ptr %44, i32 0, i32 10
  %46 = load i32, ptr %45, align 8, !tbaa !77
  %47 = icmp slt i32 %46, 1
  br i1 %47, label %53, label %48

48:                                               ; preds = %1
  %49 = load ptr, ptr %5, align 8, !tbaa !22
  %50 = getelementptr inbounds nuw %struct.BLRContext, ptr %49, i32 0, i32 11
  %51 = load i32, ptr %50, align 4, !tbaa !78
  %52 = icmp slt i32 %51, 1
  br i1 %52, label %53, label %64

53:                                               ; preds = %48, %1
  %54 = load ptr, ptr %3, align 8, !tbaa !36
  %55 = getelementptr inbounds nuw %struct.AVFilterLink, ptr %54, i32 0, i32 6
  %56 = load i32, ptr %55, align 8, !tbaa !51
  %57 = load ptr, ptr %5, align 8, !tbaa !22
  %58 = getelementptr inbounds nuw %struct.BLRContext, ptr %57, i32 0, i32 10
  store i32 %56, ptr %58, align 8, !tbaa !77
  %59 = load ptr, ptr %3, align 8, !tbaa !36
  %60 = getelementptr inbounds nuw %struct.AVFilterLink, ptr %59, i32 0, i32 7
  %61 = load i32, ptr %60, align 4, !tbaa !53
  %62 = load ptr, ptr %5, align 8, !tbaa !22
  %63 = getelementptr inbounds nuw %struct.BLRContext, ptr %62, i32 0, i32 11
  store i32 %61, ptr %63, align 4, !tbaa !78
  br label %64

64:                                               ; preds = %53, %48
  %65 = load i32, ptr %6, align 4, !tbaa !52
  %66 = sext i32 %65 to i64
  %67 = call noalias ptr @av_malloc(i64 noundef %66)
  %68 = load ptr, ptr %5, align 8, !tbaa !22
  %69 = getelementptr inbounds nuw %struct.BLRContext, ptr %68, i32 0, i32 17
  store ptr %67, ptr %69, align 8, !tbaa !54
  %70 = load i32, ptr %6, align 4, !tbaa !52
  %71 = sext i32 %70 to i64
  %72 = call noalias ptr @av_malloc(i64 noundef %71)
  %73 = load ptr, ptr %5, align 8, !tbaa !22
  %74 = getelementptr inbounds nuw %struct.BLRContext, ptr %73, i32 0, i32 16
  store ptr %72, ptr %74, align 8, !tbaa !56
  %75 = load i32, ptr %6, align 4, !tbaa !52
  %76 = sext i32 %75 to i64
  %77 = call noalias ptr @av_calloc(i64 noundef %76, i64 noundef 2)
  %78 = load ptr, ptr %5, align 8, !tbaa !22
  %79 = getelementptr inbounds nuw %struct.BLRContext, ptr %78, i32 0, i32 18
  store ptr %77, ptr %79, align 8, !tbaa !57
  %80 = load i32, ptr %6, align 4, !tbaa !52
  %81 = sext i32 %80 to i64
  %82 = call noalias ptr @av_malloc(i64 noundef %81)
  %83 = load ptr, ptr %5, align 8, !tbaa !22
  %84 = getelementptr inbounds nuw %struct.BLRContext, ptr %83, i32 0, i32 19
  store ptr %82, ptr %84, align 8, !tbaa !59
  %85 = load ptr, ptr %3, align 8, !tbaa !36
  %86 = getelementptr inbounds nuw %struct.AVFilterLink, ptr %85, i32 0, i32 6
  %87 = load i32, ptr %86, align 8, !tbaa !51
  %88 = load ptr, ptr %5, align 8, !tbaa !22
  %89 = getelementptr inbounds nuw %struct.BLRContext, ptr %88, i32 0, i32 10
  %90 = load i32, ptr %89, align 8, !tbaa !77
  %91 = sdiv i32 %87, %90
  %92 = load ptr, ptr %3, align 8, !tbaa !36
  %93 = getelementptr inbounds nuw %struct.AVFilterLink, ptr %92, i32 0, i32 7
  %94 = load i32, ptr %93, align 4, !tbaa !53
  %95 = load ptr, ptr %5, align 8, !tbaa !22
  %96 = getelementptr inbounds nuw %struct.BLRContext, ptr %95, i32 0, i32 11
  %97 = load i32, ptr %96, align 4, !tbaa !78
  %98 = sdiv i32 %94, %97
  %99 = mul nsw i32 %91, %98
  %100 = sext i32 %99 to i64
  %101 = call noalias ptr @av_calloc(i64 noundef %100, i64 noundef 4)
  %102 = load ptr, ptr %5, align 8, !tbaa !22
  %103 = getelementptr inbounds nuw %struct.BLRContext, ptr %102, i32 0, i32 15
  store ptr %101, ptr %103, align 8, !tbaa !79
  %104 = load ptr, ptr %5, align 8, !tbaa !22
  %105 = getelementptr inbounds nuw %struct.BLRContext, ptr %104, i32 0, i32 17
  %106 = load ptr, ptr %105, align 8, !tbaa !54
  %107 = icmp ne ptr %106, null
  br i1 %107, label %108, label %128

108:                                              ; preds = %64
  %109 = load ptr, ptr %5, align 8, !tbaa !22
  %110 = getelementptr inbounds nuw %struct.BLRContext, ptr %109, i32 0, i32 16
  %111 = load ptr, ptr %110, align 8, !tbaa !56
  %112 = icmp ne ptr %111, null
  br i1 %112, label %113, label %128

113:                                              ; preds = %108
  %114 = load ptr, ptr %5, align 8, !tbaa !22
  %115 = getelementptr inbounds nuw %struct.BLRContext, ptr %114, i32 0, i32 18
  %116 = load ptr, ptr %115, align 8, !tbaa !57
  %117 = icmp ne ptr %116, null
  br i1 %117, label %118, label %128

118:                                              ; preds = %113
  %119 = load ptr, ptr %5, align 8, !tbaa !22
  %120 = getelementptr inbounds nuw %struct.BLRContext, ptr %119, i32 0, i32 19
  %121 = load ptr, ptr %120, align 8, !tbaa !59
  %122 = icmp ne ptr %121, null
  br i1 %122, label %123, label %128

123:                                              ; preds = %118
  %124 = load ptr, ptr %5, align 8, !tbaa !22
  %125 = getelementptr inbounds nuw %struct.BLRContext, ptr %124, i32 0, i32 15
  %126 = load ptr, ptr %125, align 8, !tbaa !79
  %127 = icmp ne ptr %126, null
  br i1 %127, label %129, label %128

128:                                              ; preds = %123, %118, %113, %108, %64
  store i32 -12, ptr %2, align 4
  store i32 1, ptr %8, align 4
  br label %130

129:                                              ; preds = %123
  store i32 0, ptr %2, align 4
  store i32 1, ptr %8, align 4
  br label %130

130:                                              ; preds = %129, %128
  call void @llvm.lifetime.end.p0(i64 8, ptr %7) #9
  call void @llvm.lifetime.end.p0(i64 4, ptr %6) #9
  call void @llvm.lifetime.end.p0(i64 8, ptr %5) #9
  call void @llvm.lifetime.end.p0(i64 8, ptr %4) #9
  %131 = load i32, ptr %2, align 4
  ret i32 %131
}