; Function Attrs: nounwind uwtable
define internal range(i32 -12, 1) i32 @blurdetect_config_input(ptr noundef readonly captures(none) %0) #2 {
  %2 = getelementptr inbounds nuw i8, ptr %0, i64 16
  %3 = load ptr, ptr %2, align 8, !tbaa !32
  %4 = getelementptr inbounds nuw i8, ptr %3, i64 72
  %5 = load ptr, ptr %4, align 8, !tbaa !4
  %6 = getelementptr inbounds nuw i8, ptr %0, i64 40
  %7 = load i32, ptr %6, align 8, !tbaa !50
  %8 = getelementptr inbounds nuw i8, ptr %0, i64 44
  %9 = load i32, ptr %8, align 4, !tbaa !49
  %10 = mul nsw i32 %9, %7
  %11 = getelementptr inbounds nuw i8, ptr %0, i64 36
  %12 = load i32, ptr %11, align 4, !tbaa !80
  %13 = tail call ptr @av_pix_fmt_desc_get(i32 noundef %12) #9
  %14 = getelementptr inbounds nuw i8, ptr %13, i64 9
  %15 = load i8, ptr %14, align 1, !tbaa !81
  %16 = zext i8 %15 to i32
  %17 = getelementptr inbounds nuw i8, ptr %5, i64 8
  store i32 %16, ptr %17, align 8, !tbaa !53
  %18 = getelementptr inbounds nuw i8, ptr %13, i64 10
  %19 = load i8, ptr %18, align 2, !tbaa !83
  %20 = zext i8 %19 to i32
  %21 = getelementptr inbounds nuw i8, ptr %5, i64 12
  store i32 %20, ptr %21, align 4, !tbaa !54
  %22 = load i32, ptr %11, align 4, !tbaa !80
  %23 = tail call i32 @av_pix_fmt_count_planes(i32 noundef %22) #9
  %24 = getelementptr inbounds nuw i8, ptr %5, i64 16
  store i32 %23, ptr %24, align 8, !tbaa !48
  %25 = getelementptr inbounds nuw i8, ptr %5, i64 40
  %26 = load i32, ptr %25, align 8, !tbaa !60
  %27 = icmp slt i32 %26, 1
  br i1 %27, label %32, label %28

28:                                               ; preds = %1
  %29 = getelementptr inbounds nuw i8, ptr %5, i64 44
  %30 = load i32, ptr %29, align 4, !tbaa !61
  %31 = icmp slt i32 %30, 1
  br i1 %31, label %32, label %36

32:                                               ; preds = %28, %1
  %33 = load i32, ptr %6, align 8, !tbaa !50
  store i32 %33, ptr %25, align 8, !tbaa !60
  %34 = load i32, ptr %8, align 4, !tbaa !49
  %35 = getelementptr inbounds nuw i8, ptr %5, i64 44
  store i32 %34, ptr %35, align 4, !tbaa !61
  br label %36

36:                                               ; preds = %32, %28
  %37 = sext i32 %10 to i64
  %38 = tail call noalias ptr @av_malloc(i64 noundef %37) #9
  %39 = getelementptr inbounds nuw i8, ptr %5, i64 88
  store ptr %38, ptr %39, align 8, !tbaa !44
  %40 = tail call noalias ptr @av_malloc(i64 noundef %37) #9
  %41 = getelementptr inbounds nuw i8, ptr %5, i64 80
  store ptr %40, ptr %41, align 8, !tbaa !45
  %42 = tail call noalias ptr @av_calloc(i64 noundef %37, i64 noundef 2) #9
  %43 = getelementptr inbounds nuw i8, ptr %5, i64 96
  store ptr %42, ptr %43, align 8, !tbaa !46
  %44 = tail call noalias ptr @av_malloc(i64 noundef %37) #9
  %45 = getelementptr inbounds nuw i8, ptr %5, i64 104
  store ptr %44, ptr %45, align 8, !tbaa !47
  %46 = load i32, ptr %6, align 8, !tbaa !50
  %47 = load i32, ptr %25, align 8, !tbaa !60
  %48 = sdiv i32 %46, %47
  %49 = load i32, ptr %8, align 4, !tbaa !49
  %50 = getelementptr inbounds nuw i8, ptr %5, i64 44
  %51 = load i32, ptr %50, align 4, !tbaa !61
  %52 = sdiv i32 %49, %51
  %53 = mul nsw i32 %52, %48
  %54 = sext i32 %53 to i64
  %55 = tail call noalias ptr @av_calloc(i64 noundef %54, i64 noundef 4) #9
  %56 = getelementptr inbounds nuw i8, ptr %5, i64 72
  store ptr %55, ptr %56, align 8, !tbaa !58
  %57 = load ptr, ptr %39, align 8, !tbaa !44
  %.not = icmp eq ptr %57, null
  br i1 %.not, label %64, label %58

58:                                               ; preds = %36
  %59 = load ptr, ptr %41, align 8, !tbaa !45
  %.not35 = icmp eq ptr %59, null
  br i1 %.not35, label %64, label %60

60:                                               ; preds = %58
  %61 = load ptr, ptr %43, align 8, !tbaa !46
  %.not36 = icmp eq ptr %61, null
  br i1 %.not36, label %64, label %62

62:                                               ; preds = %60
  %63 = load ptr, ptr %45, align 8, !tbaa !47
  %.not37 = icmp eq ptr %63, null
  %.not38 = icmp eq ptr %55, null
  %or.cond = select i1 %.not37, i1 true, i1 %.not38
  %spec.select = select i1 %or.cond, i32 -12, i32 0
  br label %64

64:                                               ; preds = %62, %36, %58, %60
  %.0 = phi i32 [ -12, %60 ], [ -12, %58 ], [ -12, %36 ], [ %spec.select, %62 ]
  ret i32 %.0
}